; Function Attrs: nounwind uwtable
define zeroext range(i8 0, 2) i8 @l_Array_contains___at___private_Lean_Elab_Tactic_Try_0__Lean_Elab_Tactic_Try_mergeParams___spec__1(ptr noundef readonly captures(none) %0, ptr noundef %1) local_unnamed_addr #0 {
lean_nat_lt.exit:
  %2 = getelementptr i8, ptr %0, i64 8
  %.val = load i64, ptr %2, align 8, !tbaa !13
  %.mask = and i64 %.val, 9223372036854775807
  %.not = icmp eq i64 %.mask, 0
  br i1 %.not, label %lean_dec.exit15, label %lean_dec.exit

lean_dec.exit15:                                  ; preds = %lean_nat_lt.exit
  %3 = ptrtoint ptr %1 to i64
  %4 = and i64 %3, 1
  %.not21 = icmp eq i64 %4, 0
  br i1 %.not21, label %5, label %lean_dec.exit14

5:                                                ; preds = %lean_dec.exit15
  %6 = load i32, ptr %1, align 4, !tbaa !8
  %7 = icmp sgt i32 %6, 1
  br i1 %7, label %8, label %10, !prof !11

8:                                                ; preds = %5
  %9 = add nsw i32 %6, -1
  store i32 %9, ptr %1, align 4, !tbaa !8
  br label %lean_dec.exit14

10:                                               ; preds = %5
  %.not.i16 = icmp eq i32 %6, 0
  br i1 %.not.i16, label %lean_dec.exit14, label %11

11:                                               ; preds = %10
  tail call void @lean_dec_ref_cold(ptr noundef nonnull %1) #5
  br label %lean_dec.exit14

lean_dec.exit:                                    ; preds = %lean_nat_lt.exit
  %12 = tail call zeroext i8 @l_Array_anyMUnsafe_any___at___private_Lean_Elab_Tactic_Try_0__Lean_Elab_Tactic_Try_mergeParams___spec__2(ptr noundef %1, ptr noundef nonnull %0, i64 noundef 0, i64 noundef %.mask)
  br label %lean_dec.exit14

lean_dec.exit14:                                  ; preds = %lean_dec.exit15, %8, %10, %11, %lean_dec.exit
  %.0 = phi i8 [ %12, %lean_dec.exit ], [ 0, %11 ], [ 0, %10 ], [ 0, %8 ], [ 0, %lean_dec.exit15 ]
  ret i8 %.0
}